; Function Attrs: nounwind uwtable
define dso_local noundef zeroext i1 @XLogArchiveIsReadyOrDone(ptr noundef %0) local_unnamed_addr #0 {
  %2 = alloca [1024 x i8], align 16
  %3 = alloca %struct.stat, align 8
  call void @llvm.lifetime.start.p0(i64 1024, ptr nonnull %2) #11
  call void @llvm.lifetime.start.p0(i64 144, ptr nonnull %3) #11
  %4 = call i32 (ptr, i64, ptr, ...) @pg_snprintf(ptr noundef nonnull %2, i64 noundef 1024, ptr noundef nonnull @.str.19, ptr noundef %0, ptr noundef nonnull @.str.17) #11
  %5 = call i32 @stat(ptr noundef nonnull %2, ptr noundef nonnull %3) #11
  %6 = icmp eq i32 %5, 0
  br i1 %6, label %15, label %7

7:                                                ; preds = %1
  %8 = call i32 (ptr, i64, ptr, ...) @pg_snprintf(ptr noundef nonnull %2, i64 noundef 1024, ptr noundef nonnull @.str.19, ptr noundef %0, ptr noundef nonnull @.str.13) #11
  %9 = call i32 @stat(ptr noundef nonnull %2, ptr noundef nonnull %3) #11
  %10 = icmp eq i32 %9, 0
  br i1 %10, label %15, label %11

11:                                               ; preds = %7
  %12 = call i32 (ptr, i64, ptr, ...) @pg_snprintf(ptr noundef nonnull %2, i64 noundef 1024, ptr noundef nonnull @.str.19, ptr noundef %0, ptr noundef nonnull @.str.17) #11
  %13 = call i32 @stat(ptr noundef nonnull %2, ptr noundef nonnull %3) #11
  %14 = icmp eq i32 %13, 0
  br label %15

15:                                               ; preds = %11, %7, %1
  %.0 = phi i1 [ true, %1 ], [ true, %7 ], [ %14, %11 ]
  call void @llvm.lifetime.end.p0(i64 144, ptr nonnull %3) #11
  call void @llvm.lifetime.end.p0(i64 1024, ptr nonnull %2) #11
  ret i1 %.0
}